; Function Attrs: mustprogress uwtable
define hidden noundef ptr @assimp_stbi_load_from_callbacks(ptr nocapture noundef readonly %clbk, ptr noundef %user, ptr nocapture noundef %x, ptr nocapture noundef %y, ptr noundef %comp, i32 noundef %req_comp) local_unnamed_addr #3 {
entry:
  %s = alloca %struct.stbi__context, align 8
  %io.i = getelementptr inbounds i8, ptr %s, i64 16
  call void @llvm.memcpy.p0.p0.i64(ptr noundef nonnull align 8 dereferenceable(24) %io.i, ptr noundef nonnull align 8 dereferenceable(24) %clbk, i64 24, i1 false)
  %io_user_data.i = getelementptr inbounds i8, ptr %s, i64 40
  store ptr %user, ptr %io_user_data.i, align 8
  %buflen.i = getelementptr inbounds i8, ptr %s, i64 52
  store i32 128, ptr %buflen.i, align 4
  %read_from_callbacks.i = getelementptr inbounds i8, ptr %s, i64 48
  store i32 1, ptr %read_from_callbacks.i, align 8
  %callback_already_read.i = getelementptr inbounds i8, ptr %s, i64 184
  store i32 0, ptr %callback_already_read.i, align 8
  %buffer_start.i = getelementptr inbounds i8, ptr %s, i64 56
  %img_buffer_original.i = getelementptr inbounds i8, ptr %s, i64 208
  store ptr %buffer_start.i, ptr %img_buffer_original.i, align 8
  %img_buffer.i = getelementptr inbounds i8, ptr %s, i64 192
  store ptr %buffer_start.i, ptr %img_buffer.i, align 8
  %0 = load ptr, ptr %io.i, align 8
  %call.i.i = call noundef i32 %0(ptr noundef %user, ptr noundef nonnull %buffer_start.i, i32 noundef 128)
  %1 = load ptr, ptr %img_buffer.i, align 8
  %2 = load ptr, ptr %img_buffer_original.i, align 8
  %sub.ptr.lhs.cast.i.i = ptrtoint ptr %1 to i64
  %sub.ptr.rhs.cast.i.i = ptrtoint ptr %2 to i64
  %sub.ptr.sub.i.i = sub i64 %sub.ptr.lhs.cast.i.i, %sub.ptr.rhs.cast.i.i
  %conv.i.i = trunc i64 %sub.ptr.sub.i.i to i32
  %3 = load i32, ptr %callback_already_read.i, align 8
  %add.i.i = add nsw i32 %3, %conv.i.i
  store i32 %add.i.i, ptr %callback_already_read.i, align 8
  %cmp.i.i = icmp eq i32 %call.i.i, 0
  br i1 %cmp.i.i, label %if.then.i.i, label %if.else.i.i

if.then.i.i:                                      ; preds = %entry
  store i32 0, ptr %read_from_callbacks.i, align 8
  %add.ptr.i.i = getelementptr inbounds i8, ptr %s, i64 57
  store i8 0, ptr %buffer_start.i, align 8
  br label %_ZL21stbi__start_callbacksP13stbi__contextP17stbi_io_callbacksPv.exit

if.else.i.i:                                      ; preds = %entry
  %idx.ext.i.i = sext i32 %call.i.i to i64
  %add.ptr12.i.i = getelementptr inbounds i8, ptr %buffer_start.i, i64 %idx.ext.i.i
  br label %_ZL21stbi__start_callbacksP13stbi__contextP17stbi_io_callbacksPv.exit

_ZL21stbi__start_callbacksP13stbi__contextP17stbi_io_callbacksPv.exit: ; preds = %if.then.i.i, %if.else.i.i
  %add.ptr12.sink.i.i = phi ptr [ %add.ptr.i.i, %if.then.i.i ], [ %add.ptr12.i.i, %if.else.i.i ]
  store ptr %buffer_start.i, ptr %img_buffer.i, align 8
  %4 = getelementptr inbounds i8, ptr %s, i64 200
  store ptr %add.ptr12.sink.i.i, ptr %4, align 8
  %img_buffer_original_end.i = getelementptr inbounds i8, ptr %s, i64 216
  store ptr %add.ptr12.sink.i.i, ptr %img_buffer_original_end.i, align 8
  %call = call fastcc noundef ptr @_ZL31stbi__load_and_postprocess_8bitP13stbi__contextPiS1_S1_i(ptr noundef nonnull %s, ptr noundef %x, ptr noundef %y, ptr noundef %comp, i32 noundef %req_comp)
  ret ptr %call
}